	.file	"main.c"
	.text
.Ltext0:
	.file 0 "/home/confuzzl/dev/c/vector" "main.c"
	.section	.rodata.str1.1,"aMS",@progbits,1
.LC0:
	.string	"header_init(%lu)\n"
.LC1:
	.string	"new header at %p: data at %p\n"
	.text
	.globl	header_init
	.type	header_init, @function
header_init:
.LVL0:
.LFB39:
	.file 1 "vector.h"
	.loc 1 16 39 view -0
	.cfi_startproc
	.loc 1 16 39 is_stmt 0 view .LVU1
	endbr64
	pushq	%rbx
	.cfi_def_cfa_offset 16
	.cfi_offset 3, -16
	movq	%rdi, %rbx
	.loc 1 17 2 is_stmt 1 view .LVU2
.LVL1:
.LBB23:
.LBI23:
	.file 2 "/usr/include/x86_64-linux-gnu/bits/stdio2.h"
	.loc 2 84 1 view .LVU3
.LBB24:
	.loc 2 86 3 view .LVU4
	.loc 2 86 10 is_stmt 0 view .LVU5
	movq	%rdi, %rdx
	leaq	.LC0(%rip), %rsi
	movl	$2, %edi
.LVL2:
	.loc 2 86 10 view .LVU6
	movl	$0, %eax
	call	__printf_chk@PLT
.LVL3:
	.loc 2 86 10 view .LVU7
.LBE24:
.LBE23:
	.loc 1 18 2 is_stmt 1 view .LVU8
	.loc 1 19 2 view .LVU9
	.loc 1 20 2 view .LVU10
	.loc 1 20 19 is_stmt 0 view .LVU11
	leaq	16(%rbx), %rdi
	call	malloc@PLT
.LVL4:
	movq	%rax, %rbx
.LVL5:
	.loc 1 21 2 is_stmt 1 view .LVU12
	.loc 1 21 19 is_stmt 0 view .LVU13
	movq	$1, (%rax)
	.loc 1 22 2 is_stmt 1 view .LVU14
	.loc 1 22 16 is_stmt 0 view .LVU15
	movq	$0, 8(%rax)
	.loc 1 23 2 is_stmt 1 view .LVU16
	.loc 1 23 57 is_stmt 0 view .LVU17
	leaq	16(%rax), %rcx
.LVL6:
.LBB25:
.LBI25:
	.loc 2 84 1 is_stmt 1 view .LVU18
.LBB26:
	.loc 2 86 3 view .LVU19
	.loc 2 86 10 is_stmt 0 view .LVU20
	movq	%rax, %rdx
	leaq	.LC1(%rip), %rsi
	movl	$2, %edi
	movl	$0, %eax
.LVL7:
	.loc 2 86 10 view .LVU21
	call	__printf_chk@PLT
.LVL8:
	.loc 2 86 10 view .LVU22
.LBE26:
.LBE25:
	.loc 1 24 2 is_stmt 1 view .LVU23
	.loc 1 25 1 is_stmt 0 view .LVU24
	movq	%rbx, %rax
	popq	%rbx
	.cfi_def_cfa_offset 8
.LVL9:
	.loc 1 25 1 view .LVU25
	ret
	.cfi_endproc
.LFE39:
	.size	header_init, .-header_init
	.globl	get_header
	.type	get_header, @function
get_header:
.LVL10:
.LFB40:
	.loc 1 26 31 is_stmt 1 view -0
	.cfi_startproc
	.loc 1 26 31 is_stmt 0 view .LVU27
	endbr64
	.loc 1 27 2 is_stmt 1 view .LVU28
	.loc 1 27 9 is_stmt 0 view .LVU29
	leaq	-16(%rdi), %rax
	.loc 1 28 1 view .LVU30
	ret
	.cfi_endproc
.LFE40:
	.size	get_header, .-get_header
	.globl	vec_capacity
	.type	vec_capacity, @function
vec_capacity:
.LVL11:
.LFB41:
	.loc 1 29 32 is_stmt 1 view -0
	.cfi_startproc
	.loc 1 29 32 is_stmt 0 view .LVU32
	endbr64
	.loc 1 29 34 is_stmt 1 view .LVU33
	.loc 1 29 41 is_stmt 0 view .LVU34
	call	get_header
.LVL12:
	.loc 1 29 56 discriminator 1 view .LVU35
	movq	(%rax), %rax
	.loc 1 29 68 view .LVU36
	ret
	.cfi_endproc
.LFE41:
	.size	vec_capacity, .-vec_capacity
	.globl	vec_count
	.type	vec_count, @function
vec_count:
.LVL13:
.LFB42:
	.loc 1 30 29 is_stmt 1 view -0
	.cfi_startproc
	.loc 1 30 29 is_stmt 0 view .LVU38
	endbr64
	.loc 1 30 31 is_stmt 1 view .LVU39
	.loc 1 30 38 is_stmt 0 view .LVU40
	call	get_header
.LVL14:
	.loc 1 30 53 discriminator 1 view .LVU41
	movq	8(%rax), %rax
	.loc 1 30 62 view .LVU42
	ret
	.cfi_endproc
.LFE42:
	.size	vec_count, .-vec_count
	.globl	init_vec
	.type	init_vec, @function
init_vec:
.LVL15:
.LFB43:
	.loc 1 32 45 is_stmt 1 view -0
	.cfi_startproc
	.loc 1 32 45 is_stmt 0 view .LVU44
	endbr64
	movq	%rdi, %rax
	.loc 1 33 2 is_stmt 1 view .LVU45
	.loc 1 33 19 is_stmt 0 view .LVU46
	testq	%rdi, %rdi
	je	.L12
	.loc 1 34 1 view .LVU47
	ret
.L12:
	.loc 1 32 45 view .LVU48
	subq	$8, %rsp
	.cfi_def_cfa_offset 16
	.loc 1 33 22 discriminator 1 view .LVU49
	movq	%rsi, %rdi
.LVL16:
	.loc 1 33 22 discriminator 1 view .LVU50
	call	header_init
.LVL17:
	.loc 1 33 19 discriminator 1 view .LVU51
	addq	$16, %rax
	.loc 1 34 1 view .LVU52
	addq	$8, %rsp
	.cfi_def_cfa_offset 8
	ret
	.cfi_endproc
.LFE43:
	.size	init_vec, .-init_vec
	.globl	header_from
	.type	header_from, @function
header_from:
.LVL18:
.LFB44:
	.loc 1 35 50 is_stmt 1 view -0
	.cfi_startproc
	.loc 1 35 50 is_stmt 0 view .LVU54
	endbr64
	subq	$8, %rsp
	.cfi_def_cfa_offset 16
	.loc 1 36 2 is_stmt 1 view .LVU55
	.loc 1 36 31 is_stmt 0 view .LVU56
	testq	%rdi, %rdi
	je	.L14
	.loc 1 36 15 discriminator 1 view .LVU57
	call	get_header
.LVL19:
.L13:
	.loc 1 37 1 view .LVU58
	addq	$8, %rsp
	.cfi_remember_state
	.cfi_def_cfa_offset 8
	ret
.LVL20:
.L14:
	.cfi_restore_state
	.loc 1 36 33 discriminator 2 view .LVU59
	movq	%rsi, %rdi
.LVL21:
	.loc 1 36 33 discriminator 2 view .LVU60
	call	header_init
.LVL22:
	.loc 1 36 31 view .LVU61
	jmp	.L13
	.cfi_endproc
.LFE44:
	.size	header_from, .-header_from
	.section	.rodata.str1.1
.LC2:
	.string	"prepare_push(%p, %lu)\n"
.LC3:
	.string	"header = %p\n"
.LC4:
	.string	"header->count++=%lu\n"
.LC5:
	.string	"header->capacity *= %d = %lu\n"
.LC6:
	.string	"new_header = %p\n"
	.text
	.globl	prepare_push
	.type	prepare_push, @function
prepare_push:
.LVL23:
.LFB45:
	.loc 1 38 49 is_stmt 1 view -0
	.cfi_startproc
	.loc 1 38 49 is_stmt 0 view .LVU63
	endbr64
	pushq	%rbp
	.cfi_def_cfa_offset 16
	.cfi_offset 6, -16
	pushq	%rbx
	.cfi_def_cfa_offset 24
	.cfi_offset 3, -24
	subq	$8, %rsp
	.cfi_def_cfa_offset 32
	movq	%rdi, %rbx
	movq	%rsi, %rbp
	.loc 1 39 2 is_stmt 1 view .LVU64
.LVL24:
.LBB27:
.LBI27:
	.loc 2 84 1 view .LVU65
.LBB28:
	.loc 2 86 3 view .LVU66
	.loc 2 86 10 is_stmt 0 view .LVU67
	movq	%rsi, %rcx
	movq	%rdi, %rdx
	leaq	.LC2(%rip), %rsi
.LVL25:
	.loc 2 86 10 view .LVU68
	movl	$2, %edi
.LVL26:
	.loc 2 86 10 view .LVU69
	movl	$0, %eax
	call	__printf_chk@PLT
.LVL27:
	.loc 2 86 10 view .LVU70
.LBE28:
.LBE27:
	.loc 1 40 2 is_stmt 1 view .LVU71
	.loc 1 40 19 is_stmt 0 view .LVU72
	movq	%rbp, %rsi
	movq	%rbx, %rdi
	call	header_from
.LVL28:
	movq	%rax, %rbx
.LVL29:
	.loc 1 41 2 is_stmt 1 view .LVU73
.LBB29:
.LBI29:
	.loc 2 84 1 view .LVU74
.LBB30:
	.loc 2 86 3 view .LVU75
	.loc 2 86 10 is_stmt 0 view .LVU76
	movq	%rax, %rdx
	leaq	.LC3(%rip), %rsi
	movl	$2, %edi
	movl	$0, %eax
.LVL30:
	.loc 2 86 10 view .LVU77
	call	__printf_chk@PLT
.LVL31:
	.loc 2 86 10 view .LVU78
.LBE30:
.LBE29:
	.loc 1 42 2 is_stmt 1 view .LVU79
	.loc 1 42 15 is_stmt 0 view .LVU80
	movq	8(%rbx), %rax
	leaq	1(%rax), %rdx
	movq	%rdx, 8(%rbx)
	.loc 1 43 2 is_stmt 1 view .LVU81
.LVL32:
.LBB31:
.LBI31:
	.loc 2 84 1 view .LVU82
.LBB32:
	.loc 2 86 3 view .LVU83
	.loc 2 86 10 is_stmt 0 view .LVU84
	leaq	.LC4(%rip), %rsi
	movl	$2, %edi
	movl	$0, %eax
	call	__printf_chk@PLT
.LVL33:
	.loc 2 86 10 view .LVU85
.LBE32:
.LBE31:
	.loc 1 44 2 is_stmt 1 view .LVU86
	.loc 1 44 5 is_stmt 0 view .LVU87
	movq	8(%rbx), %rax
	cmpq	%rax, (%rbx)
	jb	.L21
	.loc 1 51 3 is_stmt 1 view .LVU88
	.loc 1 51 10 is_stmt 0 view .LVU89
	leaq	16(%rbx), %rax
.LVL34:
.L17:
	.loc 1 53 1 view .LVU90
	addq	$8, %rsp
	.cfi_remember_state
	.cfi_def_cfa_offset 24
	popq	%rbx
	.cfi_def_cfa_offset 16
.LVL35:
	.loc 1 53 1 view .LVU91
	popq	%rbp
	.cfi_def_cfa_offset 8
	ret
.LVL36:
.L21:
	.cfi_restore_state
.LBB33:
	.loc 1 45 3 is_stmt 1 view .LVU92
	.loc 1 45 24 is_stmt 0 view .LVU93
	movl	$16, %esi
	movq	%rbx, %rdi
	call	realloc@PLT
.LVL37:
	movq	%rax, %rbp
.LVL38:
	.loc 1 46 3 is_stmt 1 view .LVU94
	.loc 1 46 20 is_stmt 0 view .LVU95
	movq	(%rbx), %rax
.LVL39:
	.loc 1 46 20 view .LVU96
	leaq	(%rax,%rax), %rcx
	movq	%rcx, (%rbx)
	.loc 1 47 3 is_stmt 1 view .LVU97
.LVL40:
.LBB34:
.LBI34:
	.loc 2 84 1 view .LVU98
.LBB35:
	.loc 2 86 3 view .LVU99
	.loc 2 86 10 is_stmt 0 view .LVU100
	movl	$2, %edx
	leaq	.LC5(%rip), %rsi
	movl	$2, %edi
	movl	$0, %eax
	call	__printf_chk@PLT
.LVL41:
	.loc 2 86 10 view .LVU101
.LBE35:
.LBE34:
	.loc 1 48 3 is_stmt 1 view .LVU102
.LBB36:
.LBI36:
	.loc 2 84 1 view .LVU103
.LBB37:
	.loc 2 86 3 view .LVU104
	.loc 2 86 10 is_stmt 0 view .LVU105
	movq	%rbp, %rdx
	leaq	.LC6(%rip), %rsi
	movl	$2, %edi
	movl	$0, %eax
	call	__printf_chk@PLT
.LVL42:
	.loc 2 86 10 view .LVU106
.LBE37:
.LBE36:
	.loc 1 49 3 is_stmt 1 view .LVU107
	.loc 1 49 10 is_stmt 0 view .LVU108
	leaq	16(%rbp), %rax
	jmp	.L17
.LBE33:
	.cfi_endproc
.LFE45:
	.size	prepare_push, .-prepare_push
	.section	.rodata.str1.1
.LC7:
	.string	"vec_push"
.LC8:
	.string	"pushed %d %d\n"
.LC9:
	.string	"%d %d\n"
	.text
	.globl	main
	.type	main, @function
main:
.LFB46:
	.file 3 "main.c"
	.loc 3 7 12 is_stmt 1 view -0
	.cfi_startproc
	endbr64
	pushq	%rbp
	.cfi_def_cfa_offset 16
	.cfi_offset 6, -16
	pushq	%rbx
	.cfi_def_cfa_offset 24
	.cfi_offset 3, -24
	subq	$8, %rsp
	.cfi_def_cfa_offset 32
	.loc 3 8 2 view .LVU110
.LVL43:
	.loc 3 9 2 view .LVU111
	.loc 3 11 2 view .LVU112
.LBB38:
.LBI38:
	.loc 2 84 1 view .LVU113
.LBB39:
	.loc 2 86 3 view .LVU114
	.loc 2 86 10 is_stmt 0 view .LVU115
	leaq	.LC7(%rip), %rdi
	call	puts@PLT
.LVL44:
	.loc 2 86 10 view .LVU116
.LBE39:
.LBE38:
	.loc 3 12 2 is_stmt 1 view .LVU117
	.loc 3 12 14 is_stmt 0 view .LVU118
	movl	$4, %esi
	movl	$0, %edi
	call	prepare_push
.LVL45:
	movq	%rax, %rbx
.LVL46:
	.loc 3 12 14 discriminator 1 view .LVU119
	movq	%rax, %rdi
	call	vec_count
.LVL47:
	.loc 3 12 14 discriminator 2 view .LVU120
	movl	$7, -4(%rbx,%rax,4)
	movq	%rbx, %rdi
	call	vec_count
.LVL48:
	.loc 3 12 7 discriminator 3 view .LVU121
	leaq	-4(%rbx,%rax,4), %rbp
.LVL49:
	.loc 3 13 2 is_stmt 1 view .LVU122
	.loc 3 13 14 is_stmt 0 view .LVU123
	movl	$4, %esi
	movq	%rbx, %rdi
	call	prepare_push
.LVL50:
	movq	%rax, %rbx
.LVL51:
	.loc 3 13 14 discriminator 1 view .LVU124
	movq	%rax, %rdi
	call	vec_count
.LVL52:
	.loc 3 13 14 discriminator 2 view .LVU125
	movl	$3, -4(%rbx,%rax,4)
	movq	%rbx, %rdi
	call	vec_count
.LVL53:
	.loc 3 14 2 is_stmt 1 view .LVU126
	movl	-4(%rbx,%rax,4), %ecx
	movl	0(%rbp), %edx
.LVL54:
.LBB40:
.LBI40:
	.loc 2 84 1 view .LVU127
.LBB41:
	.loc 2 86 3 view .LVU128
	.loc 2 86 10 is_stmt 0 view .LVU129
	leaq	.LC8(%rip), %rsi
	movl	$2, %edi
	movl	$0, %eax
.LVL55:
	.loc 2 86 10 view .LVU130
	call	__printf_chk@PLT
.LVL56:
	.loc 2 86 10 view .LVU131
.LBE41:
.LBE40:
	.loc 3 15 2 is_stmt 1 view .LVU132
	movl	4(%rbx), %ecx
	movl	(%rbx), %edx
.LVL57:
.LBB42:
.LBI42:
	.loc 2 84 1 view .LVU133
.LBB43:
	.loc 2 86 3 view .LVU134
	.loc 2 86 10 is_stmt 0 view .LVU135
	leaq	.LC9(%rip), %rsi
	movl	$2, %edi
	movl	$0, %eax
	call	__printf_chk@PLT
.LVL58:
	.loc 2 86 10 view .LVU136
.LBE43:
.LBE42:
	.loc 3 16 1 view .LVU137
	movl	$0, %eax
	addq	$8, %rsp
	.cfi_def_cfa_offset 24
	popq	%rbx
	.cfi_def_cfa_offset 16
.LVL59:
	.loc 3 16 1 view .LVU138
	popq	%rbp
	.cfi_def_cfa_offset 8
.LVL60:
	.loc 3 16 1 view .LVU139
	ret
	.cfi_endproc
.LFE46:
	.size	main, .-main
.Letext0:
	.file 4 "/usr/lib/gcc/x86_64-linux-gnu/13/include/stddef.h"
	.file 5 "/usr/include/stdlib.h"
	.file 6 "/usr/include/x86_64-linux-gnu/bits/stdio2-decl.h"
	.file 7 "<built-in>"
	.section	.note.GNU-stack,"",@progbits
	.section	.note.gnu.property,"a"
	.align 8
	.long	1f - 0f
	.long	4f - 1f
	.long	5
0:
	.string	"GNU"
1:
	.align 8
	.long	0xc0000002
	.long	3f - 2f
2:
	.long	0x3
3:
	.align 8
4:
